; ModuleID = '42/1265.c'
source_filename = "42/1265.c"
target datalayout = "e-m:e-p270:32:32-p271:32:32-p272:64:64-i64:64-f80:128-n8:16:32:64-S128"
target triple = "x86_64-pc-linux-gnu"

%struct.num = type { i32, %struct.num* }

@.str = private unnamed_addr constant [3 x i8] c"%d\00", align 1
@a = common dso_local global i32 0, align 4
@.str.1 = private unnamed_addr constant [4 x i8] c"%d \00", align 1

; Function Attrs: noinline nounwind uwtable
define dso_local %struct.num* @creat() #0 {
  %1 = alloca %struct.num*, align 8
  %2 = alloca %struct.num*, align 8
  %3 = alloca %struct.num*, align 8
  %4 = alloca i32, align 4
  %5 = call noalias i8* @malloc(i64 100) #3
  %6 = bitcast i8* %5 to %struct.num*
  store %struct.num* %6, %struct.num** %3, align 8
  store %struct.num* %6, %struct.num** %2, align 8
  %7 = load %struct.num*, %struct.num** %2, align 8
  %8 = getelementptr inbounds %struct.num, %struct.num* %7, i32 0, i32 0
  %9 = call i32 (i8*, ...) @__isoc99_scanf(i8* getelementptr inbounds ([3 x i8], [3 x i8]* @.str, i64 0, i64 0), i32* %8)
  %10 = load %struct.num*, %struct.num** %2, align 8
  store %struct.num* %10, %struct.num** %1, align 8
  store i32 1, i32* %4, align 4
  br label %11

11:                                               ; preds = %25, %0
  %12 = load i32, i32* %4, align 4
  %13 = load i32, i32* @a, align 4
  %14 = icmp slt i32 %12, %13
  br i1 %14, label %15, label %28

15:                                               ; preds = %11
  %16 = load %struct.num*, %struct.num** %2, align 8
  store %struct.num* %16, %struct.num** %3, align 8
  %17 = call noalias i8* @malloc(i64 100) #3
  %18 = bitcast i8* %17 to %struct.num*
  store %struct.num* %18, %struct.num** %2, align 8
  %19 = load %struct.num*, %struct.num** %2, align 8
  %20 = load %struct.num*, %struct.num** %3, align 8
  %21 = getelementptr inbounds %struct.num, %struct.num* %20, i32 0, i32 1
  store %struct.num* %19, %struct.num** %21, align 8
  %22 = load %struct.num*, %struct.num** %2, align 8
  %23 = getelementptr inbounds %struct.num, %struct.num* %22, i32 0, i32 0
  %24 = call i32 (i8*, ...) @__isoc99_scanf(i8* getelementptr inbounds ([3 x i8], [3 x i8]* @.str, i64 0, i64 0), i32* %23)
  br label %25

25:                                               ; preds = %15
  %26 = load i32, i32* %4, align 4
  %27 = add nsw i32 %26, 1
  store i32 %27, i32* %4, align 4
  br label %11

28:                                               ; preds = %11
  %29 = load %struct.num*, %struct.num** %2, align 8
  store %struct.num* %29, %struct.num** %3, align 8
  %30 = load %struct.num*, %struct.num** %3, align 8
  %31 = getelementptr inbounds %struct.num, %struct.num* %30, i32 0, i32 1
  store %struct.num* null, %struct.num** %31, align 8
  %32 = load %struct.num*, %struct.num** %1, align 8
  ret %struct.num* %32
}

; Function Attrs: nounwind
declare dso_local noalias i8* @malloc(i64) #1

declare dso_local i32 @__isoc99_scanf(i8*, ...) #2

; Function Attrs: noinline nounwind uwtable
define dso_local %struct.num* @del(%struct.num* %0, i32 %1, i32 %2) #0 {
  %4 = alloca %struct.num*, align 8
  %5 = alloca %struct.num*, align 8
  %6 = alloca i32, align 4
  %7 = alloca i32, align 4
  %8 = alloca %struct.num*, align 8
  %9 = alloca %struct.num*, align 8
  %10 = alloca i32, align 4
  store %struct.num* %0, %struct.num** %5, align 8
  store i32 %1, i32* %6, align 4
  store i32 %2, i32* %7, align 4
  %11 = load %struct.num*, %struct.num** %5, align 8
  %12 = icmp eq %struct.num* %11, null
  br i1 %12, label %13, label %15

13:                                               ; preds = %3
  %14 = load %struct.num*, %struct.num** %5, align 8
  store %struct.num* %14, %struct.num** %4, align 8
  br label %68

15:                                               ; preds = %3
  %16 = load %struct.num*, %struct.num** %5, align 8
  store %struct.num* %16, %struct.num** %8, align 8
  store i32 0, i32* %10, align 4
  br label %17

17:                                               ; preds = %63, %15
  %18 = load i32, i32* %10, align 4
  %19 = load i32, i32* %6, align 4
  %20 = icmp slt i32 %18, %19
  br i1 %20, label %21, label %66

21:                                               ; preds = %17
  %22 = load i32, i32* %7, align 4
  %23 = load %struct.num*, %struct.num** %8, align 8
  %24 = getelementptr inbounds %struct.num, %struct.num* %23, i32 0, i32 0
  %25 = load i32, i32* %24, align 8
  %26 = icmp ne i32 %22, %25
  br i1 %26, label %27, label %37

27:                                               ; preds = %21
  %28 = load %struct.num*, %struct.num** %8, align 8
  %29 = getelementptr inbounds %struct.num, %struct.num* %28, i32 0, i32 1
  %30 = load %struct.num*, %struct.num** %29, align 8
  %31 = icmp ne %struct.num* %30, null
  br i1 %31, label %32, label %37

32:                                               ; preds = %27
  %33 = load %struct.num*, %struct.num** %8, align 8
  store %struct.num* %33, %struct.num** %9, align 8
  %34 = load %struct.num*, %struct.num** %8, align 8
  %35 = getelementptr inbounds %struct.num, %struct.num* %34, i32 0, i32 1
  %36 = load %struct.num*, %struct.num** %35, align 8
  store %struct.num* %36, %struct.num** %8, align 8
  br label %62

37:                                               ; preds = %27, %21
  %38 = load i32, i32* %7, align 4
  %39 = load %struct.num*, %struct.num** %8, align 8
  %40 = getelementptr inbounds %struct.num, %struct.num* %39, i32 0, i32 0
  %41 = load i32, i32* %40, align 8
  %42 = icmp eq i32 %38, %41
  br i1 %42, label %43, label %61

43:                                               ; preds = %37
  %44 = load %struct.num*, %struct.num** %8, align 8
  %45 = load %struct.num*, %struct.num** %5, align 8
  %46 = icmp eq %struct.num* %44, %45
  br i1 %46, label %47, label %51

47:                                               ; preds = %43
  %48 = load %struct.num*, %struct.num** %8, align 8
  %49 = getelementptr inbounds %struct.num, %struct.num* %48, i32 0, i32 1
  %50 = load %struct.num*, %struct.num** %49, align 8
  store %struct.num* %50, %struct.num** %5, align 8
  br label %57

51:                                               ; preds = %43
  %52 = load %struct.num*, %struct.num** %8, align 8
  %53 = getelementptr inbounds %struct.num, %struct.num* %52, i32 0, i32 1
  %54 = load %struct.num*, %struct.num** %53, align 8
  %55 = load %struct.num*, %struct.num** %9, align 8
  %56 = getelementptr inbounds %struct.num, %struct.num* %55, i32 0, i32 1
  store %struct.num* %54, %struct.num** %56, align 8
  br label %57

57:                                               ; preds = %51, %47
  %58 = load %struct.num*, %struct.num** %8, align 8
  %59 = getelementptr inbounds %struct.num, %struct.num* %58, i32 0, i32 1
  %60 = load %struct.num*, %struct.num** %59, align 8
  store %struct.num* %60, %struct.num** %8, align 8
  br label %61

61:                                               ; preds = %57, %37
  br label %62

62:                                               ; preds = %61, %32
  br label %63

63:                                               ; preds = %62
  %64 = load i32, i32* %10, align 4
  %65 = add nsw i32 %64, 1
  store i32 %65, i32* %10, align 4
  br label %17

66:                                               ; preds = %17
  %67 = load %struct.num*, %struct.num** %5, align 8
  store %struct.num* %67, %struct.num** %4, align 8
  br label %68

68:                                               ; preds = %66, %13
  %69 = load %struct.num*, %struct.num** %4, align 8
  ret %struct.num* %69
}

; Function Attrs: noinline nounwind uwtable
define dso_local void @print(%struct.num* %0) #0 {
  %2 = alloca %struct.num*, align 8
  %3 = alloca %struct.num*, align 8
  store %struct.num* %0, %struct.num** %2, align 8
  %4 = load %struct.num*, %struct.num** %2, align 8
  store %struct.num* %4, %struct.num** %3, align 8
  %5 = load %struct.num*, %struct.num** %2, align 8
  %6 = icmp ne %struct.num* %5, null
  br i1 %6, label %7, label %31

7:                                                ; preds = %1
  br label %8

8:                                                ; preds = %27, %7
  %9 = load %struct.num*, %struct.num** %3, align 8
  %10 = getelementptr inbounds %struct.num, %struct.num* %9, i32 0, i32 1
  %11 = load %struct.num*, %struct.num** %10, align 8
  %12 = icmp eq %struct.num* %11, null
  br i1 %12, label %13, label %18

13:                                               ; preds = %8
  %14 = load %struct.num*, %struct.num** %3, align 8
  %15 = getelementptr inbounds %struct.num, %struct.num* %14, i32 0, i32 0
  %16 = load i32, i32* %15, align 8
  %17 = call i32 (i8*, ...) @printf(i8* getelementptr inbounds ([3 x i8], [3 x i8]* @.str, i64 0, i64 0), i32 %16)
  br label %23

18:                                               ; preds = %8
  %19 = load %struct.num*, %struct.num** %3, align 8
  %20 = getelementptr inbounds %struct.num, %struct.num* %19, i32 0, i32 0
  %21 = load i32, i32* %20, align 8
  %22 = call i32 (i8*, ...) @printf(i8* getelementptr inbounds ([4 x i8], [4 x i8]* @.str.1, i64 0, i64 0), i32 %21)
  br label %23

23:                                               ; preds = %18, %13
  %24 = load %struct.num*, %struct.num** %3, align 8
  %25 = getelementptr inbounds %struct.num, %struct.num* %24, i32 0, i32 1
  %26 = load %struct.num*, %struct.num** %25, align 8
  store %struct.num* %26, %struct.num** %3, align 8
  br label %27

27:                                               ; preds = %23
  %28 = load %struct.num*, %struct.num** %3, align 8
  %29 = icmp ne %struct.num* %28, null
  br i1 %29, label %8, label %30

30:                                               ; preds = %27
  br label %31

31:                                               ; preds = %30, %1
  ret void
}

declare dso_local i32 @printf(i8*, ...) #2

; Function Attrs: noinline nounwind uwtable
define dso_local void @main() #0 {
  %1 = alloca %struct.num*, align 8
  %2 = alloca i32, align 4
  %3 = call i32 (i8*, ...) @__isoc99_scanf(i8* getelementptr inbounds ([3 x i8], [3 x i8]* @.str, i64 0, i64 0), i32* @a)
  %4 = call %struct.num* @creat()
  store %struct.num* %4, %struct.num** %1, align 8
  %5 = call i32 (i8*, ...) @__isoc99_scanf(i8* getelementptr inbounds ([3 x i8], [3 x i8]* @.str, i64 0, i64 0), i32* %2)
  %6 = load %struct.num*, %struct.num** %1, align 8
  %7 = load i32, i32* @a, align 4
  %8 = load i32, i32* %2, align 4
  %9 = call %struct.num* @del(%struct.num* %6, i32 %7, i32 %8)
  store %struct.num* %9, %struct.num** %1, align 8
  %10 = load %struct.num*, %struct.num** %1, align 8
  call void @print(%struct.num* %10)
  ret void
}


!llvm.module.flags = !{!0}
!llvm.ident = !{!1}

!0 = !{i32 1, !"wchar_size", i32 4}
!1 = !{!"clang version 10.0.0-4ubuntu1 "}
